target datalayout = "e-m:e-p270:32:32-p271:32:32-p272:64:64-i64:64-i128:128-f80:128-n8:16:32:64-S128"
target triple = "x86_64-pc-linux-gnu"

%struct.darktable_t = type { %struct.dt_codepath_t, i32, i32, ptr, ptr, ptr, ptr, ptr, ptr, ptr, ptr, ptr, ptr, ptr, ptr, ptr, ptr, ptr, ptr, ptr, ptr, ptr, ptr, ptr, ptr, ptr, ptr, ptr, ptr, ptr, [64 x %struct.dt_pthread_mutex_t], %struct.dt_pthread_mutex_t, %struct.dt_pthread_mutex_t, %struct.dt_pthread_mutex_t, %struct.dt_pthread_mutex_t, %struct.dt_pthread_mutex_t, ptr, ptr, ptr, ptr, ptr, ptr, ptr, ptr, ptr, ptr, ptr, ptr, ptr, %struct.dt_lua_state_t, ptr, double, ptr, i32, [47 x i32], i32, i32, ptr, ptr, %struct.dt_sys_resources_t, %struct.dt_backthumb_t, %struct.dt_gimp_t }
%struct.dt_codepath_t = type { i8, [3 x i8] }
%struct.dt_pthread_mutex_t = type { %union.pthread_mutex_t }
%union.pthread_mutex_t = type { %struct.__pthread_mutex_s }
%struct.__pthread_mutex_s = type { i32, i32, i32, i32, i32, i16, i16, %struct.__pthread_internal_list }
%struct.__pthread_internal_list = type { ptr, ptr }
%struct.dt_lua_state_t = type { i32 }
%struct.dt_sys_resources_t = type { i64, i64, ptr, ptr, i32 }
%struct.dt_backthumb_t = type { double, double, i32, i32, i32, i32 }
%struct.dt_gimp_t = type { i32, ptr, ptr, i32, i32 }
%struct._GdkRGBA = type { double, double, double, double }
%struct._GtkBorder = type { i16, i16, i16, i16 }
%struct.dt_bauhaus_t = type { ptr, %struct.dt_bauhaus_popup_t, ptr, float, float, i32, i32, float, [180 x i8], i32, i32, [2 x i32], i32, ptr, ptr, float, float, float, float, float, ptr, ptr, i32, i32, i32, %struct._GdkRGBA, %struct._GdkRGBA, %struct._GdkRGBA, %struct._GdkRGBA, %struct._GdkRGBA, %struct._GdkRGBA, %struct._GdkRGBA, %struct._GdkRGBA, %struct._GdkRGBA, %struct._GdkRGBA, %struct._GdkRGBA, %struct._GdkRGBA, %struct._GdkRGBA, %struct._GdkRGBA, %struct._GdkRGBA, [3 x %struct._GdkRGBA], [5 x %struct._GdkRGBA] }
%struct.dt_bauhaus_popup_t = type { ptr, ptr, %struct._GtkBorder, %struct._cairo_rectangle_int, i32, i32, i32 }
%struct._cairo_rectangle_int = type { i32, i32, i32, i32 }
%struct.dt_introspection_type_enum_tuple_t = type { ptr, i32, ptr }

@darktable = external global %struct.darktable_t, align 8

; Function Attrs: nounwind uwtable
define i32 @dt_bauhaus_combobox_add_introspection(ptr noundef %0, ptr noundef %1, ptr noundef %2, i32 noundef %3, i32 noundef %4) #0 {
  %6 = alloca i32, align 4
  %7 = alloca ptr, align 8
  %8 = alloca ptr, align 8
  %9 = alloca ptr, align 8
  %10 = alloca i32, align 4
  %11 = alloca i32, align 4
  %12 = alloca ptr, align 8
  %13 = alloca ptr, align 8
  %14 = alloca i32, align 4
  store ptr %0, ptr %7, align 8, !tbaa !15
  store ptr %1, ptr %8, align 8, !tbaa !214
  store ptr %2, ptr %9, align 8, !tbaa !256
  store i32 %3, ptr %10, align 4, !tbaa !13
  store i32 %4, ptr %11, align 4, !tbaa !13
  call void @llvm.lifetime.start.p0(i64 8, ptr %12) #13
  %15 = load ptr, ptr %9, align 8, !tbaa !256
  store ptr %15, ptr %12, align 8, !tbaa !256
  %16 = load ptr, ptr %8, align 8, !tbaa !214
  %17 = icmp ne ptr %16, null
  br i1 %17, label %18, label %25

18:                                               ; preds = %5
  %19 = load ptr, ptr getelementptr inbounds nuw (%struct.darktable_t, ptr @darktable, i32 0, i32 17), align 8, !tbaa !78
  %20 = getelementptr inbounds nuw %struct.dt_bauhaus_t, ptr %19, i32 0, i32 13
  %21 = load ptr, ptr %20, align 8, !tbaa !106
  %22 = load ptr, ptr %8, align 8, !tbaa !214
  %23 = load ptr, ptr %9, align 8, !tbaa !256
  %24 = call i32 @g_hash_table_insert(ptr noundef %21, ptr noundef %22, ptr noundef %23)
  br label %25

25:                                               ; preds = %18, %5
  br label %26

26:                                               ; preds = %39, %25
  %27 = load ptr, ptr %12, align 8, !tbaa !256
  %28 = getelementptr inbounds nuw %struct.dt_introspection_type_enum_tuple_t, ptr %27, i32 0, i32 0
  %29 = load ptr, ptr %28, align 8, !tbaa !276
  %30 = icmp ne ptr %29, null
  br i1 %30, label %31, label %37

31:                                               ; preds = %26
  %32 = load ptr, ptr %12, align 8, !tbaa !256
  %33 = getelementptr inbounds nuw %struct.dt_introspection_type_enum_tuple_t, ptr %32, i32 0, i32 1
  %34 = load i32, ptr %33, align 8, !tbaa !278
  %35 = load i32, ptr %10, align 4, !tbaa !13
  %36 = icmp ne i32 %34, %35
  br label %37

37:                                               ; preds = %31, %26
  %38 = phi i1 [ false, %26 ], [ %36, %31 ]
  br i1 %38, label %39, label %42

39:                                               ; preds = %37
  %40 = load ptr, ptr %12, align 8, !tbaa !256
  %41 = getelementptr inbounds nuw %struct.dt_introspection_type_enum_tuple_t, ptr %40, i32 1
  store ptr %41, ptr %12, align 8, !tbaa !256
  br label %26

42:                                               ; preds = %37
  br label %43

43:                                               ; preds = %86, %42
  %44 = load ptr, ptr %12, align 8, !tbaa !256
  %45 = getelementptr inbounds nuw %struct.dt_introspection_type_enum_tuple_t, ptr %44, i32 0, i32 0
  %46 = load ptr, ptr %45, align 8, !tbaa !276
  %47 = icmp ne ptr %46, null
  br i1 %47, label %48, label %89

48:                                               ; preds = %43
  call void @llvm.lifetime.start.p0(i64 8, ptr %13) #13
  %49 = load ptr, ptr %12, align 8, !tbaa !256
  %50 = getelementptr inbounds nuw %struct.dt_introspection_type_enum_tuple_t, ptr %49, i32 0, i32 2
  %51 = load ptr, ptr %50, align 8, !tbaa !279
  %52 = icmp ne ptr %51, null
  br i1 %52, label %53, label %57

53:                                               ; preds = %48
  %54 = load ptr, ptr %12, align 8, !tbaa !256
  %55 = getelementptr inbounds nuw %struct.dt_introspection_type_enum_tuple_t, ptr %54, i32 0, i32 2
  %56 = load ptr, ptr %55, align 8, !tbaa !279
  br label %61

57:                                               ; preds = %48
  %58 = load ptr, ptr %12, align 8, !tbaa !256
  %59 = getelementptr inbounds nuw %struct.dt_introspection_type_enum_tuple_t, ptr %58, i32 0, i32 0
  %60 = load ptr, ptr %59, align 8, !tbaa !276
  br label %61

61:                                               ; preds = %57, %53
  %62 = phi ptr [ %56, %53 ], [ %60, %57 ]
  store ptr %62, ptr %13, align 8, !tbaa !171
  %63 = load ptr, ptr %13, align 8, !tbaa !171
  %64 = load i8, ptr %63, align 1, !tbaa !164
  %65 = icmp ne i8 %64, 0
  br i1 %65, label %66, label %75

66:                                               ; preds = %61
  %67 = load ptr, ptr %7, align 8, !tbaa !15
  %68 = load ptr, ptr %13, align 8, !tbaa !171
  %69 = call ptr @g_dpgettext(ptr noundef null, ptr noundef %68, i64 noundef 0)
  %70 = load ptr, ptr %12, align 8, !tbaa !256
  %71 = getelementptr inbounds nuw %struct.dt_introspection_type_enum_tuple_t, ptr %70, i32 0, i32 1
  %72 = load i32, ptr %71, align 8, !tbaa !278
  %73 = sext i32 %72 to i64
  %74 = inttoptr i64 %73 to ptr
  call void @dt_bauhaus_combobox_add_full(ptr noundef %67, ptr noundef %69, i32 noundef 1, ptr noundef %74, ptr noundef null, i32 noundef 1)
  br label %75

75:                                               ; preds = %66, %61
  %76 = load ptr, ptr %12, align 8, !tbaa !256
  %77 = getelementptr inbounds nuw %struct.dt_introspection_type_enum_tuple_t, ptr %76, i32 0, i32 1
  %78 = load i32, ptr %77, align 8, !tbaa !278
  %79 = load i32, ptr %11, align 4, !tbaa !13
  %80 = icmp eq i32 %78, %79
  br i1 %80, label %81, label %82

81:                                               ; preds = %75
  store i32 1, ptr %6, align 4
  store i32 1, ptr %14, align 4
  br label %83

82:                                               ; preds = %75
  store i32 0, ptr %14, align 4
  br label %83

83:                                               ; preds = %82, %81
  call void @llvm.lifetime.end.p0(i64 8, ptr %13) #13
  %84 = load i32, ptr %14, align 4
  switch i32 %84, label %90 [
    i32 0, label %85
  ]

85:                                               ; preds = %83
  br label %86

86:                                               ; preds = %85
  %87 = load ptr, ptr %12, align 8, !tbaa !256
  %88 = getelementptr inbounds nuw %struct.dt_introspection_type_enum_tuple_t, ptr %87, i32 1
  store ptr %88, ptr %12, align 8, !tbaa !256
  br label %43

89:                                               ; preds = %43
  store i32 0, ptr %6, align 4
  store i32 1, ptr %14, align 4
  br label %90

90:                                               ; preds = %89, %83
  call void @llvm.lifetime.end.p0(i64 8, ptr %12) #13
  %91 = load i32, ptr %6, align 4
  ret i32 %91
}