; Function Attrs: nounwind uwtable
define range(i32 0, 2) i32 @dt_bauhaus_combobox_add_introspection(ptr noundef %0, ptr noundef %1, ptr noundef %2, i32 noundef %3, i32 noundef %4) local_unnamed_addr #0 {
  %.not = icmp eq ptr %1, null
  br i1 %.not, label %11, label %6

6:                                                ; preds = %5
  %7 = load ptr, ptr getelementptr inbounds nuw (i8, ptr @darktable, i64 128), align 8, !tbaa !67
  %8 = getelementptr inbounds nuw i8, ptr %7, i64 296
  %9 = load ptr, ptr %8, align 8, !tbaa !86
  %10 = tail call i32 @g_hash_table_insert(ptr noundef %9, ptr noundef nonnull %1, ptr noundef %2) #19
  br label %11

11:                                               ; preds = %6, %5
  %12 = load ptr, ptr %2, align 8, !tbaa !210
  %.not2632 = icmp eq ptr %12, null
  br i1 %.not2632, label %._crit_edge, label %.lr.ph.preheader

.lr.ph.preheader:                                 ; preds = %11
  %13 = getelementptr inbounds nuw i8, ptr %2, i64 8
  %14 = load i32, ptr %13, align 8, !tbaa !212
  %.not2750 = icmp eq i32 %14, %3
  br i1 %.not2750, label %.lr.ph38.preheader, label %.lr.ph52

.lr.ph38.preheader:                               ; preds = %.lr.ph, %.lr.ph.preheader
  %.ph = phi ptr [ %12, %.lr.ph.preheader ], [ %18, %.lr.ph ]
  %.12237.ph = phi ptr [ %2, %.lr.ph.preheader ], [ %17, %.lr.ph ]
  br label %.lr.ph38

.lr.ph:                                           ; preds = %.lr.ph52
  %15 = getelementptr inbounds nuw i8, ptr %.0213351, i64 32
  %16 = load i32, ptr %15, align 8, !tbaa !212
  %.not27 = icmp eq i32 %16, %3
  br i1 %.not27, label %.lr.ph38.preheader, label %.lr.ph52

.lr.ph52:                                         ; preds = %.lr.ph.preheader, %.lr.ph
  %.0213351 = phi ptr [ %17, %.lr.ph ], [ %2, %.lr.ph.preheader ]
  %17 = getelementptr inbounds nuw i8, ptr %.0213351, i64 24
  %18 = load ptr, ptr %17, align 8, !tbaa !210
  %.not26 = icmp eq ptr %18, null
  br i1 %.not26, label %._crit_edge, label %.lr.ph

19:                                               ; preds = %32
  %20 = getelementptr inbounds nuw i8, ptr %.12237, i64 24
  %21 = load ptr, ptr %20, align 8, !tbaa !210
  %.not28 = icmp eq ptr %21, null
  br i1 %.not28, label %._crit_edge, label %.lr.ph38

.lr.ph38:                                         ; preds = %.lr.ph38.preheader, %19
  %22 = phi ptr [ %21, %19 ], [ %.ph, %.lr.ph38.preheader ]
  %.12237 = phi ptr [ %20, %19 ], [ %.12237.ph, %.lr.ph38.preheader ]
  %23 = getelementptr inbounds nuw i8, ptr %.12237, i64 16
  %24 = load ptr, ptr %23, align 8, !tbaa !213
  %.not29 = icmp eq ptr %24, null
  %. = select i1 %.not29, ptr %22, ptr %24
  %25 = load i8, ptr %., align 1, !tbaa !106
  %.not30 = icmp eq i8 %25, 0
  br i1 %.not30, label %32, label %26

26:                                               ; preds = %.lr.ph38
  %27 = tail call ptr @g_dpgettext(ptr noundef null, ptr noundef nonnull %., i64 noundef 0) #19
  %28 = getelementptr inbounds nuw i8, ptr %.12237, i64 8
  %29 = load i32, ptr %28, align 8, !tbaa !212
  %30 = sext i32 %29 to i64
  %31 = inttoptr i64 %30 to ptr
  tail call void @dt_bauhaus_combobox_add_full(ptr noundef %0, ptr noundef %27, i32 noundef 1, ptr noundef %31, ptr noundef null, i32 noundef 1)
  br label %32

32:                                               ; preds = %26, %.lr.ph38
  %33 = getelementptr inbounds nuw i8, ptr %.12237, i64 8
  %34 = load i32, ptr %33, align 8, !tbaa !212
  %.not31 = icmp eq i32 %34, %4
  br i1 %.not31, label %._crit_edge, label %19

._crit_edge:                                      ; preds = %.lr.ph52, %32, %19, %11
  %.2 = phi i32 [ 0, %11 ], [ 0, %19 ], [ 1, %32 ], [ 0, %.lr.ph52 ]
  ret i32 %.2
}